target datalayout = "e-m:e-p270:32:32-p271:32:32-p272:64:64-i64:64-i128:128-f80:128-n8:16:32:64-S128"
target triple = "x86_64-pc-linux-gnu"

%struct.commit_extra_header = type { ptr, ptr, ptr, i64 }

; Function Attrs: nounwind uwtable
define dso_local void @free_commit_extra_headers(ptr noundef %0) #0 {
  %2 = alloca ptr, align 8
  %3 = alloca ptr, align 8
  store ptr %0, ptr %2, align 8, !tbaa !199
  br label %4

4:                                                ; preds = %7, %1
  %5 = load ptr, ptr %2, align 8, !tbaa !199
  %6 = icmp ne ptr %5, null
  br i1 %6, label %7, label %19

7:                                                ; preds = %4
  call void @llvm.lifetime.start.p0(i64 8, ptr %3) #11
  %8 = load ptr, ptr %2, align 8, !tbaa !199
  %9 = getelementptr inbounds nuw %struct.commit_extra_header, ptr %8, i32 0, i32 0
  %10 = load ptr, ptr %9, align 8, !tbaa !208
  store ptr %10, ptr %3, align 8, !tbaa !199
  %11 = load ptr, ptr %2, align 8, !tbaa !199
  %12 = getelementptr inbounds nuw %struct.commit_extra_header, ptr %11, i32 0, i32 1
  %13 = load ptr, ptr %12, align 8, !tbaa !201
  call void @free(ptr noundef %13) #11
  %14 = load ptr, ptr %2, align 8, !tbaa !199
  %15 = getelementptr inbounds nuw %struct.commit_extra_header, ptr %14, i32 0, i32 2
  %16 = load ptr, ptr %15, align 8, !tbaa !203
  call void @free(ptr noundef %16) #11
  %17 = load ptr, ptr %2, align 8, !tbaa !199
  call void @free(ptr noundef %17) #11
  %18 = load ptr, ptr %3, align 8, !tbaa !199
  store ptr %18, ptr %2, align 8, !tbaa !199
  call void @llvm.lifetime.end.p0(i64 8, ptr %3) #11
  br label %4, !llvm.loop !210

19:                                               ; preds = %4
  ret void
}

; Function Attrs: nounwind uwtable
define dso_local i32 @commit_tree(ptr noundef %0, i64 noundef %1, ptr noundef %2, ptr noundef %3, ptr noundef %4, ptr noundef %5, ptr noundef %6) #0 {
  %8 = alloca ptr, align 8
  %9 = alloca i64, align 8
  %10 = alloca ptr, align 8
  %11 = alloca ptr, align 8
  %12 = alloca ptr, align 8
  %13 = alloca ptr, align 8
  %14 = alloca ptr, align 8
  %15 = alloca ptr, align 8
  %16 = alloca ptr, align 8
  %17 = alloca i32, align 4
  store ptr %0, ptr %8, align 8, !tbaa !15
  store i64 %1, ptr %9, align 8, !tbaa !47
  store ptr %2, ptr %10, align 8, !tbaa !9
  store ptr %3, ptr %11, align 8, !tbaa !58
  store ptr %4, ptr %12, align 8, !tbaa !9
  store ptr %5, ptr %13, align 8, !tbaa !15
  store ptr %6, ptr %14, align 8, !tbaa !15
  call void @llvm.lifetime.start.p0(i64 8, ptr %15) #11
  store ptr null, ptr %15, align 8, !tbaa !199
  call void @llvm.lifetime.start.p0(i64 8, ptr %16) #11
  store ptr %15, ptr %16, align 8, !tbaa !205
  call void @llvm.lifetime.start.p0(i64 4, ptr %17) #11
  %18 = load ptr, ptr %11, align 8, !tbaa !58
  call void @append_merge_tag_headers(ptr noundef %18, ptr noundef %16)
  %19 = load ptr, ptr %8, align 8, !tbaa !15
  %20 = load i64, ptr %9, align 8, !tbaa !47
  %21 = load ptr, ptr %10, align 8, !tbaa !9
  %22 = load ptr, ptr %11, align 8, !tbaa !58
  %23 = load ptr, ptr %12, align 8, !tbaa !9
  %24 = load ptr, ptr %13, align 8, !tbaa !15
  %25 = load ptr, ptr %14, align 8, !tbaa !15
  %26 = load ptr, ptr %15, align 8, !tbaa !199
  %27 = call i32 @commit_tree_extended(ptr noundef %19, i64 noundef %20, ptr noundef %21, ptr noundef %22, ptr noundef %23, ptr noundef %24, ptr noundef null, ptr noundef %25, ptr noundef %26)
  store i32 %27, ptr %17, align 4, !tbaa !11
  %28 = load ptr, ptr %15, align 8, !tbaa !199
  call void @free_commit_extra_headers(ptr noundef %28)
  %29 = load i32, ptr %17, align 4, !tbaa !11
  call void @llvm.lifetime.end.p0(i64 4, ptr %17) #11
  call void @llvm.lifetime.end.p0(i64 8, ptr %16) #11
  call void @llvm.lifetime.end.p0(i64 8, ptr %15) #11
  ret i32 %29
}