; Function Attrs: nounwind uwtable
define dso_local i32 @commit_tree(ptr noundef %0, i64 noundef %1, ptr noundef %2, ptr noundef %3, ptr noundef %4, ptr noundef %5, ptr noundef %6) local_unnamed_addr #0 {
  %8 = alloca ptr, align 8
  %9 = alloca ptr, align 8
  call void @llvm.lifetime.start.p0(i64 8, ptr nonnull %8) #24
  store ptr null, ptr %8, align 8, !tbaa !180
  call void @llvm.lifetime.start.p0(i64 8, ptr nonnull %9) #24
  store ptr %8, ptr %9, align 8, !tbaa !178
  call void @append_merge_tag_headers(ptr noundef %3, ptr noundef nonnull %9)
  %10 = load ptr, ptr %8, align 8, !tbaa !180
  %11 = call i32 @commit_tree_extended(ptr noundef %0, i64 noundef %1, ptr noundef %2, ptr noundef %3, ptr noundef %4, ptr noundef %5, ptr noundef null, ptr noundef %6, ptr noundef %10)
  %12 = load ptr, ptr %8, align 8, !tbaa !180
  %.not6.i = icmp eq ptr %12, null
  br i1 %.not6.i, label %free_commit_extra_headers.exit, label %.lr.ph.i

.lr.ph.i:                                         ; preds = %7, %.lr.ph.i
  %.07.i = phi ptr [ %13, %.lr.ph.i ], [ %12, %7 ]
  %13 = load ptr, ptr %.07.i, align 8, !tbaa !183
  %14 = getelementptr inbounds nuw i8, ptr %.07.i, i64 8
  %15 = load ptr, ptr %14, align 8, !tbaa !173
  call void @free(ptr noundef %15) #24
  %16 = getelementptr inbounds nuw i8, ptr %.07.i, i64 16
  %17 = load ptr, ptr %16, align 8, !tbaa !176
  call void @free(ptr noundef %17) #24
  call void @free(ptr noundef nonnull %.07.i) #24
  %.not.i = icmp eq ptr %13, null
  br i1 %.not.i, label %free_commit_extra_headers.exit, label %.lr.ph.i, !llvm.loop !185

free_commit_extra_headers.exit:                   ; preds = %.lr.ph.i, %7
  call void @llvm.lifetime.end.p0(i64 8, ptr nonnull %9) #24
  call void @llvm.lifetime.end.p0(i64 8, ptr nonnull %8) #24
  ret i32 %11
}